target datalayout = "e-m:e-p270:32:32-p271:32:32-p272:64:64-i64:64-i128:128-f80:128-n8:16:32:64-S128"
target triple = "x86_64-pc-linux-gnu"

%"class.std::__cxx11::basic_string" = type { %"struct.std::__cxx11::basic_string<char>::_Alloc_hider", i64, %union.anon }
%"struct.std::__cxx11::basic_string<char>::_Alloc_hider" = type { ptr }
%union.anon = type { i64, [8 x i8] }
%"class.glslang::TIntermediate" = type { i32, %"class.std::__cxx11::basic_string", %"class.std::__cxx11::basic_string", %"class.std::__cxx11::list", i32, i32, %"struct.glslang::SpvVersion", ptr, %"class.std::set", %"class.glslang::MustBeAssigned", i32, i32, i32, i8, i8, i8, i8, i8, i8, i8, i8, i8, i8, [3 x i32], [3 x i8], [3 x i32], i64, %"class.std::__cxx11::basic_string", %"class.std::__cxx11::basic_string", i32, i32, i32, ptr, ptr, i32, i8, i32, i32, i32, i32, i8, i8, i8, i32, i32, i32, i8, i8, i8, i8, i8, i8, i8, i32, i32, i8, i32, i8, %"class.std::vector.14", i8, i8, i8, i32, i32, i32, i32, i8, i32, %"struct.std::array", %"struct.std::array.19", %"class.std::vector.27", i8, i8, i8, i8, i8, i8, i8, %"class.std::set.32", i32, i8, i8, i8, i8, i8, i8, ptr, ptr, %"class.std::map.40", %"class.std::map.40", %"class.std::unordered_map", i32, i8, i8, %"class.glslang::TNumericFeatures", %"class.std::unordered_map.50", %"class.std::unordered_set", %"class.std::vector.82", [5 x %"class.std::vector.87"], [4 x %"class.std::vector.92"], %"class.std::set.32", %"class.std::__cxx11::basic_string", %"class.std::__cxx11::basic_string", %"class.std::map.97", %"class.glslang::TProcesses" }
%"class.std::__cxx11::list" = type { %"class.std::__cxx11::_List_base" }
%"class.std::__cxx11::_List_base" = type { %"struct.std::__cxx11::_List_base<glslang::TCall, std::allocator<glslang::TCall>>::_List_impl" }
%"struct.std::__cxx11::_List_base<glslang::TCall, std::allocator<glslang::TCall>>::_List_impl" = type { %"struct.std::__detail::_List_node_header" }
%"struct.std::__detail::_List_node_header" = type { %"struct.std::__detail::_List_node_base", i64 }
%"struct.std::__detail::_List_node_base" = type { ptr, ptr }
%"struct.glslang::SpvVersion" = type <{ i32, i32, i32, i32, i8, [3 x i8] }>
%"class.std::set" = type { %"class.std::_Rb_tree" }
%"class.std::_Rb_tree" = type { %"struct.std::_Rb_tree<std::__cxx11::basic_string<char>, std::__cxx11::basic_string<char>, std::_Identity<std::__cxx11::basic_string<char>>, std::less<std::__cxx11::basic_string<char>>>::_Rb_tree_impl" }
%"struct.std::_Rb_tree<std::__cxx11::basic_string<char>, std::__cxx11::basic_string<char>, std::_Identity<std::__cxx11::basic_string<char>>, std::less<std::__cxx11::basic_string<char>>>::_Rb_tree_impl" = type { %"struct.std::_Rb_tree_key_compare", %"struct.std::_Rb_tree_header" }
%"struct.std::_Rb_tree_key_compare" = type { %"struct.std::less" }
%"struct.std::less" = type { i8 }
%"struct.std::_Rb_tree_header" = type { %"struct.std::_Rb_tree_node_base", i64 }
%"struct.std::_Rb_tree_node_base" = type { i32, ptr, ptr, ptr }
%"class.glslang::MustBeAssigned" = type <{ %struct.TBuiltInResource, i8, [3 x i8] }>
%struct.TBuiltInResource = type { i32, i32, i32, i32, i32, i32, i32, i32, i32, i32, i32, i32, i32, i32, i32, i32, i32, i32, i32, i32, i32, i32, i32, i32, i32, i32, i32, i32, i32, i32, i32, i32, i32, i32, i32, i32, i32, i32, i32, i32, i32, i32, i32, i32, i32, i32, i32, i32, i32, i32, i32, i32, i32, i32, i32, i32, i32, i32, i32, i32, i32, i32, i32, i32, i32, i32, i32, i32, i32, i32, i32, i32, i32, i32, i32, i32, i32, i32, i32, i32, i32, i32, i32, i32, i32, i32, i32, i32, i32, i32, i32, i32, i32, i32, i32, i32, i32, i32, i32, i32, i32, i32, %struct.TLimits }
%struct.TLimits = type { i8, i8, i8, i8, i8, i8, i8, i8, i8 }
%"class.std::vector.14" = type { %"struct.std::_Vector_base.15" }
%"struct.std::_Vector_base.15" = type { %"struct.std::_Vector_base<glslang::TXfbBuffer, std::allocator<glslang::TXfbBuffer>>::_Vector_impl" }
%"struct.std::_Vector_base<glslang::TXfbBuffer, std::allocator<glslang::TXfbBuffer>>::_Vector_impl" = type { %"struct.std::_Vector_base<glslang::TXfbBuffer, std::allocator<glslang::TXfbBuffer>>::_Vector_impl_data" }
%"struct.std::_Vector_base<glslang::TXfbBuffer, std::allocator<glslang::TXfbBuffer>>::_Vector_impl_data" = type { ptr, ptr, ptr }
%"struct.std::array" = type { [6 x i32] }
%"struct.std::array.19" = type { [6 x %"class.std::map"] }
%"class.std::map" = type { %"class.std::_Rb_tree.20" }
%"class.std::_Rb_tree.20" = type { %"struct.std::_Rb_tree<int, std::pair<const int, int>, std::_Select1st<std::pair<const int, int>>, std::less<int>>::_Rb_tree_impl" }
%"struct.std::_Rb_tree<int, std::pair<const int, int>, std::_Select1st<std::pair<const int, int>>, std::less<int>>::_Rb_tree_impl" = type { %"struct.std::_Rb_tree_key_compare.24", %"struct.std::_Rb_tree_header" }
%"struct.std::_Rb_tree_key_compare.24" = type { %"struct.std::less.25" }
%"struct.std::less.25" = type { i8 }
%"class.std::vector.27" = type { %"struct.std::_Vector_base.28" }
%"struct.std::_Vector_base.28" = type { %"struct.std::_Vector_base<std::__cxx11::basic_string<char>, std::allocator<std::__cxx11::basic_string<char>>>::_Vector_impl" }
%"struct.std::_Vector_base<std::__cxx11::basic_string<char>, std::allocator<std::__cxx11::basic_string<char>>>::_Vector_impl" = type { %"struct.std::_Vector_base<std::__cxx11::basic_string<char>, std::allocator<std::__cxx11::basic_string<char>>>::_Vector_impl_data" }
%"struct.std::_Vector_base<std::__cxx11::basic_string<char>, std::allocator<std::__cxx11::basic_string<char>>>::_Vector_impl_data" = type { ptr, ptr, ptr }
%"class.std::map.40" = type { %"class.std::_Rb_tree.41" }
%"class.std::_Rb_tree.41" = type { %"struct.std::_Rb_tree<std::__cxx11::basic_string<char, std::char_traits<char>, glslang::pool_allocator<char>>, std::pair<const std::__cxx11::basic_string<char, std::char_traits<char>, glslang::pool_allocator<char>>, glslang::AstRefType>, std::_Select1st<std::pair<const std::__cxx11::basic_string<char, std::char_traits<char>, glslang::pool_allocator<char>>, glslang::AstRefType>>, std::less<std::__cxx11::basic_string<char, std::char_traits<char>, glslang::pool_allocator<char>>>>::_Rb_tree_impl" }
%"struct.std::_Rb_tree<std::__cxx11::basic_string<char, std::char_traits<char>, glslang::pool_allocator<char>>, std::pair<const std::__cxx11::basic_string<char, std::char_traits<char>, glslang::pool_allocator<char>>, glslang::AstRefType>, std::_Select1st<std::pair<const std::__cxx11::basic_string<char, std::char_traits<char>, glslang::pool_allocator<char>>, glslang::AstRefType>>, std::less<std::__cxx11::basic_string<char, std::char_traits<char>, glslang::pool_allocator<char>>>>::_Rb_tree_impl" = type { %"struct.std::_Rb_tree_key_compare.37", %"struct.std::_Rb_tree_header" }
%"struct.std::_Rb_tree_key_compare.37" = type { %"struct.std::less.38" }
%"struct.std::less.38" = type { i8 }
%"class.std::unordered_map" = type { %"class.std::_Hashtable" }
%"class.std::_Hashtable" = type { ptr, i64, %"struct.std::__detail::_Hash_node_base", i64, %"struct.std::__detail::_Prime_rehash_policy", ptr }
%"struct.std::__detail::_Hash_node_base" = type { ptr }
%"struct.std::__detail::_Prime_rehash_policy" = type { float, i64 }
%"class.glslang::TNumericFeatures" = type { i32 }
%"class.std::unordered_map.50" = type { %"class.std::_Hashtable.51" }
%"class.std::_Hashtable.51" = type { ptr, i64, %"struct.std::__detail::_Hash_node_base", i64, %"struct.std::__detail::_Prime_rehash_policy", ptr }
%"class.std::unordered_set" = type { %"class.std::_Hashtable.64" }
%"class.std::_Hashtable.64" = type { ptr, i64, %"struct.std::__detail::_Hash_node_base", i64, %"struct.std::__detail::_Prime_rehash_policy", ptr }
%"class.std::vector.82" = type { %"struct.std::_Vector_base.83" }
%"struct.std::_Vector_base.83" = type { %"struct.std::_Vector_base<glslang::TOffsetRange, std::allocator<glslang::TOffsetRange>>::_Vector_impl" }
%"struct.std::_Vector_base<glslang::TOffsetRange, std::allocator<glslang::TOffsetRange>>::_Vector_impl" = type { %"struct.std::_Vector_base<glslang::TOffsetRange, std::allocator<glslang::TOffsetRange>>::_Vector_impl_data" }
%"struct.std::_Vector_base<glslang::TOffsetRange, std::allocator<glslang::TOffsetRange>>::_Vector_impl_data" = type { ptr, ptr, ptr }
%"class.std::vector.87" = type { %"struct.std::_Vector_base.88" }
%"struct.std::_Vector_base.88" = type { %"struct.std::_Vector_base<glslang::TIoRange, std::allocator<glslang::TIoRange>>::_Vector_impl" }
%"struct.std::_Vector_base<glslang::TIoRange, std::allocator<glslang::TIoRange>>::_Vector_impl" = type { %"struct.std::_Vector_base<glslang::TIoRange, std::allocator<glslang::TIoRange>>::_Vector_impl_data" }
%"struct.std::_Vector_base<glslang::TIoRange, std::allocator<glslang::TIoRange>>::_Vector_impl_data" = type { ptr, ptr, ptr }
%"class.std::vector.92" = type { %"struct.std::_Vector_base.93" }
%"struct.std::_Vector_base.93" = type { %"struct.std::_Vector_base<glslang::TRange, std::allocator<glslang::TRange>>::_Vector_impl" }
%"struct.std::_Vector_base<glslang::TRange, std::allocator<glslang::TRange>>::_Vector_impl" = type { %"struct.std::_Vector_base<glslang::TRange, std::allocator<glslang::TRange>>::_Vector_impl_data" }
%"struct.std::_Vector_base<glslang::TRange, std::allocator<glslang::TRange>>::_Vector_impl_data" = type { ptr, ptr, ptr }
%"class.std::set.32" = type { %"class.std::_Rb_tree.33" }
%"class.std::_Rb_tree.33" = type { %"struct.std::_Rb_tree<std::__cxx11::basic_string<char, std::char_traits<char>, glslang::pool_allocator<char>>, std::__cxx11::basic_string<char, std::char_traits<char>, glslang::pool_allocator<char>>, std::_Identity<std::__cxx11::basic_string<char, std::char_traits<char>, glslang::pool_allocator<char>>>, std::less<std::__cxx11::basic_string<char, std::char_traits<char>, glslang::pool_allocator<char>>>>::_Rb_tree_impl" }
%"struct.std::_Rb_tree<std::__cxx11::basic_string<char, std::char_traits<char>, glslang::pool_allocator<char>>, std::__cxx11::basic_string<char, std::char_traits<char>, glslang::pool_allocator<char>>, std::_Identity<std::__cxx11::basic_string<char, std::char_traits<char>, glslang::pool_allocator<char>>>, std::less<std::__cxx11::basic_string<char, std::char_traits<char>, glslang::pool_allocator<char>>>>::_Rb_tree_impl" = type { %"struct.std::_Rb_tree_key_compare.37", %"struct.std::_Rb_tree_header" }
%"class.std::map.97" = type { %"class.std::_Rb_tree.98" }
%"class.std::_Rb_tree.98" = type { %"struct.std::_Rb_tree<std::__cxx11::basic_string<char>, std::pair<const std::__cxx11::basic_string<char>, std::__cxx11::basic_string<char>>, std::_Select1st<std::pair<const std::__cxx11::basic_string<char>, std::__cxx11::basic_string<char>>>, std::less<std::__cxx11::basic_string<char>>>::_Rb_tree_impl" }
%"struct.std::_Rb_tree<std::__cxx11::basic_string<char>, std::pair<const std::__cxx11::basic_string<char>, std::__cxx11::basic_string<char>>, std::_Select1st<std::pair<const std::__cxx11::basic_string<char>, std::__cxx11::basic_string<char>>>, std::less<std::__cxx11::basic_string<char>>>::_Rb_tree_impl" = type { %"struct.std::_Rb_tree_key_compare", %"struct.std::_Rb_tree_header" }
%"class.glslang::TProcesses" = type { %"class.std::vector.27" }
%"class.glslang::TShader" = type <{ ptr, ptr, i32, [4 x i8], ptr, ptr, ptr, ptr, ptr, ptr, i32, [4 x i8], ptr, %"class.std::__cxx11::basic_string", i32, %"struct.glslang::TEnvironment", i8, [3 x i8] }>
%"struct.glslang::TEnvironment" = type { %"struct.glslang::TInputLanguage", %"struct.glslang::TClient", %"struct.glslang::TTarget" }
%"struct.glslang::TInputLanguage" = type { i32, i32, i32, i32, i8 }
%"struct.glslang::TClient" = type { i32, i32 }
%"struct.glslang::TTarget" = type { i32, i32, i8 }
%"class.__gnu_cxx::__normal_iterator.256" = type { ptr }

@.str.47 = private unnamed_addr constant [2 x i8] c" \00", align 1

; Function Attrs: mustprogress nounwind uwtable
define linkonce_odr void @_ZN9__gnu_cxx17__normal_iteratorIPNSt7__cxx1112basic_stringIcSt11char_traitsIcESaIcEEESt6vectorIS6_SaIS6_EEEC2ERKS7_(ptr noundef nonnull align 8 dereferenceable(8) %0, ptr noundef nonnull align 8 dereferenceable(8) %1) unnamed_addr #4 comdat align 2 {
  %3 = alloca ptr, align 8
  %4 = alloca ptr, align 8
  store ptr %0, ptr %3, align 8
  store ptr %1, ptr %4, align 8
  %5 = load ptr, ptr %3, align 8
  %6 = getelementptr inbounds %"class.__gnu_cxx::__normal_iterator.256", ptr %5, i32 0, i32 0
  %7 = load ptr, ptr %4, align 8
  %8 = load ptr, ptr %7, align 8
  store ptr %8, ptr %6, align 8
  ret void
}

; Function Attrs: mustprogress nounwind uwtable
define linkonce_odr noundef nonnull align 8 dereferenceable(32) ptr @_ZNK9__gnu_cxx17__normal_iteratorIPNSt7__cxx1112basic_stringIcSt11char_traitsIcESaIcEEESt6vectorIS6_SaIS6_EEEdeEv(ptr noundef nonnull align 8 dereferenceable(8) %0) #4 comdat align 2 {
  %2 = alloca ptr, align 8
  store ptr %0, ptr %2, align 8
  %3 = load ptr, ptr %2, align 8
  %4 = getelementptr inbounds %"class.__gnu_cxx::__normal_iterator.256", ptr %3, i32 0, i32 0
  %5 = load ptr, ptr %4, align 8
  ret ptr %5
}

; Function Attrs: mustprogress nounwind uwtable
define linkonce_odr ptr @_ZNK9__gnu_cxx17__normal_iteratorIPNSt7__cxx1112basic_stringIcSt11char_traitsIcESaIcEEESt6vectorIS6_SaIS6_EEEmiEl(ptr noundef nonnull align 8 dereferenceable(8) %0, i64 noundef %1) #4 comdat align 2 {
  %3 = alloca %"class.__gnu_cxx::__normal_iterator.256", align 8
  %4 = alloca ptr, align 8
  %5 = alloca i64, align 8
  %6 = alloca ptr, align 8
  store ptr %0, ptr %4, align 8
  store i64 %1, ptr %5, align 8
  %7 = load ptr, ptr %4, align 8
  %8 = getelementptr inbounds %"class.__gnu_cxx::__normal_iterator.256", ptr %7, i32 0, i32 0
  %9 = load ptr, ptr %8, align 8
  %10 = load i64, ptr %5, align 8
  %11 = sub i64 0, %10
  %12 = getelementptr inbounds %"class.std::__cxx11::basic_string", ptr %9, i64 %11
  store ptr %12, ptr %6, align 8
  call void @_ZN9__gnu_cxx17__normal_iteratorIPNSt7__cxx1112basic_stringIcSt11char_traitsIcESaIcEEESt6vectorIS6_SaIS6_EEEC2ERKS7_(ptr noundef nonnull align 8 dereferenceable(8) %3, ptr noundef nonnull align 8 dereferenceable(8) %6) #3
  %13 = getelementptr inbounds %"class.__gnu_cxx::__normal_iterator.256", ptr %3, i32 0, i32 0
  %14 = load ptr, ptr %13, align 8
  ret ptr %14
}

; Function Attrs: mustprogress nounwind uwtable
define linkonce_odr ptr @_ZNSt6vectorINSt7__cxx1112basic_stringIcSt11char_traitsIcESaIcEEESaIS5_EE3endEv(ptr noundef nonnull align 8 dereferenceable(24) %0) #4 comdat align 2 {
  %2 = alloca %"class.__gnu_cxx::__normal_iterator.256", align 8
  %3 = alloca ptr, align 8
  store ptr %0, ptr %3, align 8
  %4 = load ptr, ptr %3, align 8
  %5 = getelementptr inbounds %"struct.std::_Vector_base.28", ptr %4, i32 0, i32 0
  %6 = getelementptr inbounds %"struct.std::_Vector_base<std::__cxx11::basic_string<char>, std::allocator<std::__cxx11::basic_string<char>>>::_Vector_impl_data", ptr %5, i32 0, i32 1
  call void @_ZN9__gnu_cxx17__normal_iteratorIPNSt7__cxx1112basic_stringIcSt11char_traitsIcESaIcEEESt6vectorIS6_SaIS6_EEEC2ERKS7_(ptr noundef nonnull align 8 dereferenceable(8) %2, ptr noundef nonnull align 8 dereferenceable(8) %6) #3
  %7 = getelementptr inbounds %"class.__gnu_cxx::__normal_iterator.256", ptr %2, i32 0, i32 0
  %8 = load ptr, ptr %7, align 8
  ret ptr %8
}

; Function Attrs: mustprogress nounwind uwtable
define linkonce_odr noundef nonnull align 8 dereferenceable(32) ptr @_ZNSt6vectorINSt7__cxx1112basic_stringIcSt11char_traitsIcESaIcEEESaIS5_EE4backEv(ptr noundef nonnull align 8 dereferenceable(24) %0) #4 comdat align 2 {
  %2 = alloca ptr, align 8
  %3 = alloca %"class.__gnu_cxx::__normal_iterator.256", align 8
  %4 = alloca %"class.__gnu_cxx::__normal_iterator.256", align 8
  store ptr %0, ptr %2, align 8
  %5 = load ptr, ptr %2, align 8
  %6 = call ptr @_ZNSt6vectorINSt7__cxx1112basic_stringIcSt11char_traitsIcESaIcEEESaIS5_EE3endEv(ptr noundef nonnull align 8 dereferenceable(24) %5) #3
  %7 = getelementptr inbounds %"class.__gnu_cxx::__normal_iterator.256", ptr %4, i32 0, i32 0
  store ptr %6, ptr %7, align 8
  %8 = call ptr @_ZNK9__gnu_cxx17__normal_iteratorIPNSt7__cxx1112basic_stringIcSt11char_traitsIcESaIcEEESt6vectorIS6_SaIS6_EEEmiEl(ptr noundef nonnull align 8 dereferenceable(8) %4, i64 noundef 1) #3
  %9 = getelementptr inbounds %"class.__gnu_cxx::__normal_iterator.256", ptr %3, i32 0, i32 0
  store ptr %8, ptr %9, align 8
  %10 = call noundef nonnull align 8 dereferenceable(32) ptr @_ZNK9__gnu_cxx17__normal_iteratorIPNSt7__cxx1112basic_stringIcSt11char_traitsIcESaIcEEESt6vectorIS6_SaIS6_EEEdeEv(ptr noundef nonnull align 8 dereferenceable(8) %3) #3
  ret ptr %10
}

; Function Attrs: mustprogress nounwind uwtable
define linkonce_odr void @_ZN7glslang10TProcesses11addArgumentEi(ptr noundef nonnull align 8 dereferenceable(24) %0, i32 noundef %1) #4 comdat align 2 {
  %3 = alloca ptr, align 8
  %4 = alloca i32, align 4
  %5 = alloca %"class.std::__cxx11::basic_string", align 8
  store ptr %0, ptr %3, align 8
  store i32 %1, ptr %4, align 4
  %6 = load ptr, ptr %3, align 8
  %7 = getelementptr inbounds %"class.glslang::TProcesses", ptr %6, i32 0, i32 0
  %8 = call noundef nonnull align 8 dereferenceable(32) ptr @_ZNSt6vectorINSt7__cxx1112basic_stringIcSt11char_traitsIcESaIcEEESaIS5_EE4backEv(ptr noundef nonnull align 8 dereferenceable(24) %7) #3
  %9 = call noundef nonnull align 8 dereferenceable(32) ptr @_ZNSt7__cxx1112basic_stringIcSt11char_traitsIcESaIcEE6appendEPKc(ptr noundef nonnull align 8 dereferenceable(32) %8, ptr noundef @.str.47)
  %10 = load i32, ptr %4, align 4
  call void @_ZNSt7__cxx119to_stringEi(ptr dead_on_unwind writable sret(%"class.std::__cxx11::basic_string") align 8 %5, i32 noundef %10) #3
  %11 = getelementptr inbounds %"class.glslang::TProcesses", ptr %6, i32 0, i32 0
  %12 = call noundef nonnull align 8 dereferenceable(32) ptr @_ZNSt6vectorINSt7__cxx1112basic_stringIcSt11char_traitsIcESaIcEEESaIS5_EE4backEv(ptr noundef nonnull align 8 dereferenceable(24) %11) #3
  %13 = call noundef nonnull align 8 dereferenceable(32) ptr @_ZNSt7__cxx1112basic_stringIcSt11char_traitsIcESaIcEE6appendERKS4_(ptr noundef nonnull align 8 dereferenceable(32) %12, ptr noundef nonnull align 8 dereferenceable(32) %5)
  call void @_ZNSt7__cxx1112basic_stringIcSt11char_traitsIcESaIcEED1Ev(ptr noundef nonnull align 8 dereferenceable(32) %5) #3
  ret void
}

; Function Attrs: mustprogress nounwind uwtable
define linkonce_odr noundef nonnull align 4 dereferenceable(4) ptr @_ZNSt14__array_traitsIjLm6EE6_S_refERA6_Kjm(ptr noundef nonnull align 4 dereferenceable(24) %0, i64 noundef %1) #4 comdat align 2 {
  %3 = alloca ptr, align 8
  %4 = alloca i64, align 8
  store ptr %0, ptr %3, align 8
  store i64 %1, ptr %4, align 8
  %5 = load ptr, ptr %3, align 8
  %6 = load i64, ptr %4, align 8
  %7 = getelementptr inbounds [6 x i32], ptr %5, i64 0, i64 %6
  ret ptr %7
}

; Function Attrs: mustprogress nounwind uwtable
define linkonce_odr void @_ZN7glslang10TProcesses12addIfNonZeroEPKci(ptr noundef nonnull align 8 dereferenceable(24) %0, ptr noundef %1, i32 noundef %2) #4 comdat align 2 {
  %4 = alloca ptr, align 8
  %5 = alloca ptr, align 8
  %6 = alloca i32, align 4
  store ptr %0, ptr %4, align 8
  store ptr %1, ptr %5, align 8
  store i32 %2, ptr %6, align 4
  %7 = load ptr, ptr %4, align 8
  %8 = load i32, ptr %6, align 4
  %9 = icmp ne i32 %8, 0
  br i1 %9, label %10, label %13

10:                                               ; preds = %3
  %11 = load ptr, ptr %5, align 8
  call void @_ZN7glslang10TProcesses10addProcessEPKc(ptr noundef nonnull align 8 dereferenceable(24) %7, ptr noundef %11)
  %12 = load i32, ptr %6, align 4
  call void @_ZN7glslang10TProcesses11addArgumentEi(ptr noundef nonnull align 8 dereferenceable(24) %7, i32 noundef %12)
  br label %13

13:                                               ; preds = %10, %3
  ret void
}

; Function Attrs: mustprogress nounwind uwtable
define linkonce_odr noundef nonnull align 4 dereferenceable(4) ptr @_ZNSt5arrayIjLm6EEixEm(ptr noundef nonnull align 4 dereferenceable(24) %0, i64 noundef %1) #4 comdat align 2 {
  %3 = alloca ptr, align 8
  %4 = alloca i64, align 8
  store ptr %0, ptr %3, align 8
  store i64 %1, ptr %4, align 8
  %5 = load ptr, ptr %3, align 8
  %6 = getelementptr inbounds %"struct.std::array", ptr %5, i32 0, i32 0
  %7 = load i64, ptr %4, align 8
  %8 = call noundef nonnull align 4 dereferenceable(4) ptr @_ZNSt14__array_traitsIjLm6EE6_S_refERA6_Kjm(ptr noundef nonnull align 4 dereferenceable(24) %6, i64 noundef %7) #3
  ret ptr %8
}

; Function Attrs: mustprogress nounwind uwtable
define linkonce_odr void @_ZN7glslang13TIntermediate15setShiftBindingENS_13TResourceTypeEj(ptr noundef nonnull align 8 dereferenceable(2024) %0, i32 noundef %1, i32 noundef %2) #4 comdat align 2 {
  %4 = alloca ptr, align 8
  %5 = alloca i32, align 4
  %6 = alloca i32, align 4
  %7 = alloca ptr, align 8
  store ptr %0, ptr %4, align 8
  store i32 %1, ptr %5, align 4
  store i32 %2, ptr %6, align 4
  %8 = load ptr, ptr %4, align 8
  %9 = load i32, ptr %6, align 4
  %10 = getelementptr inbounds %"class.glslang::TIntermediate", ptr %8, i32 0, i32 68
  %11 = load i32, ptr %5, align 4
  %12 = zext i32 %11 to i64
  %13 = call noundef nonnull align 4 dereferenceable(4) ptr @_ZNSt5arrayIjLm6EEixEm(ptr noundef nonnull align 4 dereferenceable(24) %10, i64 noundef %12) #3
  store i32 %9, ptr %13, align 4
  %14 = load i32, ptr %5, align 4
  %15 = call noundef ptr @_ZN7glslang13TIntermediate15getResourceNameENS_13TResourceTypeE(i32 noundef %14)
  store ptr %15, ptr %7, align 8
  %16 = load ptr, ptr %7, align 8
  %17 = icmp ne ptr %16, null
  br i1 %17, label %18, label %22

18:                                               ; preds = %3
  %19 = getelementptr inbounds %"class.glslang::TIntermediate", ptr %8, i32 0, i32 104
  %20 = load ptr, ptr %7, align 8
  %21 = load i32, ptr %6, align 4
  call void @_ZN7glslang10TProcesses12addIfNonZeroEPKci(ptr noundef nonnull align 8 dereferenceable(24) %19, ptr noundef %20, i32 noundef %21)
  br label %22

22:                                               ; preds = %18, %3
  ret void
}

; Function Attrs: mustprogress nounwind uwtable
define void @_ZN7glslang7TShader15setShiftBindingENS_13TResourceTypeEj(ptr noundef nonnull align 8 dereferenceable(165) %0, i32 noundef %1, i32 noundef %2) #4 align 2 {
  %4 = alloca ptr, align 8
  %5 = alloca i32, align 4
  %6 = alloca i32, align 4
  store ptr %0, ptr %4, align 8
  store i32 %1, ptr %5, align 4
  store i32 %2, ptr %6, align 4
  %7 = load ptr, ptr %4, align 8
  %8 = getelementptr inbounds %"class.glslang::TShader", ptr %7, i32 0, i32 5
  %9 = load ptr, ptr %8, align 8
  %10 = load i32, ptr %5, align 4
  %11 = load i32, ptr %6, align 4
  call void @_ZN7glslang13TIntermediate15setShiftBindingENS_13TResourceTypeEj(ptr noundef nonnull align 8 dereferenceable(2024) %9, i32 noundef %10, i32 noundef %11)
  ret void
}

; Function Attrs: mustprogress nounwind uwtable
define void @_ZN7glslang7TShader19setShiftSsboBindingEj(ptr noundef nonnull align 8 dereferenceable(165) %0, i32 noundef %1) #4 align 2 {
  %3 = alloca ptr, align 8
  %4 = alloca i32, align 4
  store ptr %0, ptr %3, align 8
  store i32 %1, ptr %4, align 4
  %5 = load ptr, ptr %3, align 8
  %6 = load i32, ptr %4, align 4
  call void @_ZN7glslang7TShader15setShiftBindingENS_13TResourceTypeEj(ptr noundef nonnull align 8 dereferenceable(165) %5, i32 noundef 4, i32 noundef %6)
  ret void
}